(dp0
S'METTS MARK'
p1
(dp2
S'to_messages'
p3
I807
sS'deferral_payments'
p4
S'NaN'
p5
sS'expenses'
p6
I94299
sS'poi'
p7
I00
sS'deferred_income'
p8
g5
sS'email_address'
p9
S'mark.metts@enron.com'
p10
sS'long_term_incentive'
p11
g5
sS'from_poi_to_this_person_ratio'
p12
F0.04708798017348203
sS'restricted_stock_deferred'
p13
g5
sS'shared_receipt_with_poi'
p14
I702
sS'loan_advances'
p15
g5
sS'from_messages'
p16
I29
sS'other'
p17
I1740
sS'director_fees'
p18
g5
sS'bonus'
p19
I600000
sS'total_stock_value'
p20
I585062
sS'from_poi_to_this_person'
p21
I38
sS'shared_receipt_with_poi_ratio'
p22
F0.8698884758364313
sS'from_this_person_to_poi'
p23
I1
sS'restricted_stock'
p24
I585062
sS'salary'
p25
I365788
sS'total_payments'
p26
I1061827
sS'exercised_stock_options'
p27
g5
sS'from_this_person_to_poi_ratio'
p28
F0.034482758620689655
ssS'BAXTER JOHN C'
p29
(dp30
g3
g5
sg4
I1295738
sg6
I11200
sg7
I00
sg8
I-1386055
sg9
g5
sg11
I1586055
sg12
S'NaN'
p31
sg13
g5
sg14
g5
sg15
g5
sg16
g5
sg17
I2660303
sg18
g5
sg19
I1200000
sg20
I10623258
sg21
g5
sg22
g31
sg23
g5
sg24
I3942714
sg25
I267102
sg26
I5634343
sg27
I6680544
sg28
g31
ssS'ELLIOTT STEVEN'
p32
(dp33
g3
g5
sg4
g5
sg6
I78552
sg7
I00
sg8
I-400729
sg9
S'steven.elliott@enron.com'
p34
sg11
g5
sg12
g31
sg13
g5
sg14
g5
sg15
g5
sg16
g5
sg17
I12961
sg18
g5
sg19
I350000
sg20
I6678735
sg21
g5
sg22
g31
sg23
g5
sg24
I1788391
sg25
I170941
sg26
I211725
sg27
I4890344
sg28
g31
ssS'CORDES WILLIAM R'
p35
(dp36
g3
I764
sg4
g5
sg6
g5
sg7
I00
sg8
g5
sg9
S'bill.cordes@enron.com'
p37
sg11
g5
sg12
F0.013089005235602094
sg13
g5
sg14
I58
sg15
g5
sg16
I12
sg17
g5
sg18
g5
sg19
g5
sg20
I1038185
sg21
I10
sg22
F0.07591623036649214
sg23
I0
sg24
I386335
sg25
g5
sg26
g5
sg27
I651850
sg28
F0.0
ssS'HANNON KEVIN P'
p38
(dp39
g3
I1045
sg4
g5
sg6
I34039
sg7
I01
sg8
I-3117011
sg9
S'kevin.hannon@enron.com'
p40
sg11
I1617011
sg12
F0.03062200956937799
sg13
g5
sg14
I1035
sg15
g5
sg16
I32
sg17
I11350
sg18
g5
sg19
I1500000
sg20
I6391065
sg21
I32
sg22
F0.9904306220095693
sg23
I21
sg24
I853064
sg25
I243293
sg26
I288682
sg27
I5538001
sg28
F0.65625
ssS'MORDAUNT KRISTINA M'
p41
(dp42
g3
g5
sg4
g5
sg6
I35018
sg7
I00
sg8
g5
sg9
S'kristina.mordaunt@enron.com'
p43
sg11
g5
sg12
g31
sg13
g5
sg14
g5
sg15
g5
sg16
g5
sg17
I1411
sg18
g5
sg19
I325000
sg20
I208510
sg21
g5
sg22
g31
sg23
g5
sg24
I208510
sg25
I267093
sg26
I628522
sg27
g5
sg28
g31
ssS'MEYER ROCKFORD G'
p44
(dp45
g3
I232
sg4
I1848227
sg6
g5
sg7
I00
sg8
g5
sg9
S'rockford.meyer@enron.com'
p46
sg11
g5
sg12
F0.0
sg13
g5
sg14
I22
sg15
g5
sg16
I28
sg17
g5
sg18
g5
sg19
g5
sg20
I955873
sg21
I0
sg22
F0.09482758620689655
sg23
I0
sg24
I462384
sg25
g5
sg26
I1848227
sg27
I493489
sg28
F0.0
ssS'MCMAHON JEFFREY'
p47
(dp48
g3
I2355
sg4
g5
sg6
I137108
sg7
I00
sg8
g5
sg9
S'jeffrey.mcmahon@enron.com'
p49
sg11
I694862
sg12
F0.024628450106157114
sg13
g5
sg14
I2228
sg15
g5
sg16
I48
sg17
I297353
sg18
g5
sg19
I2600000
sg20
I1662855
sg21
I58
sg22
F0.9460721868365181
sg23
I26
sg24
I558801
sg25
I370448
sg26
I4099771
sg27
I1104054
sg28
F0.5416666666666666
ssS'HORTON STANLEY C'
p50
(dp51
g3
I2350
sg4
I3131860
sg6
g5
sg7
I00
sg8
g5
sg9
S'stanley.horton@enron.com'
p52
sg11
g5
sg12
F0.01872340425531915
sg13
g5
sg14
I1074
sg15
g5
sg16
I1073
sg17
g5
sg18
g5
sg19
g5
sg20
I7256648
sg21
I44
sg22
F0.4570212765957447
sg23
I15
sg24
I2046079
sg25
g5
sg26
I3131860
sg27
I5210569
sg28
F0.013979496738117428
ssS'PIPER GREGORY F'
p53
(dp54
g3
I1238
sg4
I1130036
sg6
I43057
sg7
I00
sg8
I-33333
sg9
S'greg.piper@enron.com'
p55
sg11
g5
sg12
F0.049273021001615507
sg13
I-409554
sg14
I742
sg15
g5
sg16
I222
sg17
I778
sg18
g5
sg19
I400000
sg20
I880290
sg21
I61
sg22
F0.5993537964458805
sg23
I48
sg24
I409554
sg25
I197091
sg26
I1737629
sg27
I880290
sg28
F0.21621621621621623
ssS'HUMPHREY GENE E'
p56
(dp57
g3
I128
sg4
I2964506
sg6
I4994
sg7
I00
sg8
g5
sg9
S'gene.humphrey@enron.com'
p58
sg11
g5
sg12
F0.078125
sg13
g5
sg14
I119
sg15
g5
sg16
I17
sg17
g5
sg18
g5
sg19
g5
sg20
I2282768
sg21
I10
sg22
F0.9296875
sg23
I17
sg24
g5
sg25
I130724
sg26
I3100224
sg27
I2282768
sg28
F1.0
ssS'UMANOFF ADAM S'
p59
(dp60
g3
I111
sg4
g5
sg6
I53122
sg7
I00
sg8
g5
sg9
S'adam.umanoff@enron.com'
p61
sg11
g5
sg12
F0.10810810810810811
sg13
g5
sg14
I41
sg15
g5
sg16
I18
sg17
g5
sg18
g5
sg19
I788750
sg20
g5
sg21
I12
sg22
F0.36936936936936937
sg23
I0
sg24
g5
sg25
I288589
sg26
I1130461
sg27
g5
sg28
F0.0
ssS'BLACHMAN JEREMY M'
p62
(dp63
g3
I2475
sg4
g5
sg6
I84208
sg7
I00
sg8
g5
sg9
S'jeremy.blachman@enron.com'
p64
sg11
I831809
sg12
F0.010101010101010102
sg13
g5
sg14
I2326
sg15
g5
sg16
I14
sg17
I272
sg18
g5
sg19
I850000
sg20
I954354
sg21
I25
sg22
F0.9397979797979797
sg23
I2
sg24
I189041
sg25
I248546
sg26
I2014835
sg27
I765313
sg28
F0.14285714285714285
ssS'SUNDE MARTIN'
p65
(dp66
g3
I2647
sg4
g5
sg6
g5
sg7
I00
sg8
g5
sg9
S'marty.sunde@enron.com'
p67
sg11
I476451
sg12
F0.013978088401964487
sg13
g5
sg14
I2565
sg15
g5
sg16
I38
sg17
I111122
sg18
g5
sg19
I700000
sg20
I698920
sg21
I37
sg22
F0.9690215338118625
sg23
I13
sg24
I698920
sg25
I257486
sg26
I1545059
sg27
g5
sg28
F0.34210526315789475
ssS'GIBBS DANA R'
p68
(dp69
g3
I169
sg4
I504610
sg6
g5
sg7
I00
sg8
g5
sg9
S'dana.gibbs@enron.com'
p70
sg11
I461912
sg12
F0.0
sg13
g5
sg14
I23
sg15
g5
sg16
I12
sg17
g5
sg18
g5
sg19
g5
sg20
I2218275
sg21
I0
sg22
F0.13609467455621302
sg23
I0
sg24
g5
sg25
g5
sg26
I966522
sg27
I2218275
sg28
F0.0
ssS'LOWRY CHARLES P'
p71
(dp72
g3
g5
sg4
g5
sg6
g5
sg7
I00
sg8
g5
sg9
g5
sg11
g5
sg12
g31
sg13
I-153686
sg14
g5
sg15
g5
sg16
g5
sg17
g5
sg18
g5
sg19
g5
sg20
I372205
sg21
g5
sg22
g31
sg23
g5
sg24
I153686
sg25
g5
sg26
g5
sg27
I372205
sg28
g31
ssS'COLWELL WESLEY'
p73
(dp74
g3
I1758
sg4
I27610
sg6
I16514
sg7
I01
sg8
I-144062
sg9
S'wes.colwell@enron.com'
p75
sg11
g5
sg12
F0.13651877133105803
sg13
g5
sg14
I1132
sg15
g5
sg16
I40
sg17
I101740
sg18
g5
sg19
I1200000
sg20
I698242
sg21
I240
sg22
F0.6439135381114903
sg23
I11
sg24
I698242
sg25
I288542
sg26
I1490344
sg27
g5
sg28
F0.275
ssS'MULLER MARK S'
p76
(dp77
g3
I136
sg4
I842924
sg6
g5
sg7
I00
sg8
I-719000
sg9
S's..muller@enron.com'
p78
sg11
I1725545
sg12
F0.08823529411764706
sg13
g5
sg14
I114
sg15
g5
sg16
I16
sg17
I947
sg18
g5
sg19
I1100000
sg20
I1416848
sg21
I12
sg22
F0.8382352941176471
sg23
I0
sg24
I360528
sg25
I251654
sg26
I3202070
sg27
I1056320
sg28
F0.0
ssS'JACKSON CHARLENE R'
p79
(dp80
g3
I258
sg4
g5
sg6
I10181
sg7
I00
sg8
g5
sg9
S'charlene.jackson@enron.com'
p81
sg11
g5
sg12
F0.09689922480620156
sg13
g5
sg14
I117
sg15
g5
sg16
I56
sg17
I2435
sg18
g5
sg19
I250000
sg20
I725735
sg21
I25
sg22
F0.45348837209302323
sg23
I19
sg24
I540672
sg25
I288558
sg26
I551174
sg27
I185063
sg28
F0.3392857142857143
ssS'WESTFAHL RICHARD K'
p82
(dp83
g3
g5
sg4
g5
sg6
I51870
sg7
I00
sg8
I-10800
sg9
S'dick.westfahl@enron.com'
p84
sg11
I256191
sg12
g31
sg13
g5
sg14
g5
sg15
g5
sg16
g5
sg17
I401130
sg18
g5
sg19
g5
sg20
I384930
sg21
g5
sg22
g31
sg23
g5
sg24
I384930
sg25
I63744
sg26
I762135
sg27
g5
sg28
g31
ssS'WALTERS GARETH W'
p85
(dp86
g3
g5
sg4
I53625
sg6
I33785
sg7
I00
sg8
g5
sg9
g5
sg11
g5
sg12
g31
sg13
g5
sg14
g5
sg15
g5
sg16
g5
sg17
g5
sg18
g5
sg19
g5
sg20
I1030329
sg21
g5
sg22
g31
sg23
g5
sg24
g5
sg25
g5
sg26
I87410
sg27
I1030329
sg28
g31
ssS'WALLS JR ROBERT H'
p87
(dp88
g3
I671
sg4
g5
sg6
I50936
sg7
I00
sg8
g5
sg9
S'rob.walls@enron.com'
p89
sg11
I540751
sg12
F0.02533532041728763
sg13
g5
sg14
I215
sg15
g5
sg16
I146
sg17
I2
sg18
g5
sg19
I850000
sg20
I5898997
sg21
I17
sg22
F0.3204172876304024
sg23
I0
sg24
I1552453
sg25
I357091
sg26
I1798780
sg27
I4346544
sg28
F0.0
ssS'KITCHEN LOUISE'
p90
(dp91
g3
I8305
sg4
g5
sg6
I5774
sg7
I00
sg8
g5
sg9
S'louise.kitchen@enron.com'
p92
sg11
g5
sg12
F0.030222757375075255
sg13
g5
sg14
I3669
sg15
g5
sg16
I1728
sg17
I93925
sg18
g5
sg19
I3100000
sg20
I547143
sg21
I251
sg22
F0.441782059000602
sg23
I194
sg24
I466101
sg25
I271442
sg26
I3471141
sg27
I81042
sg28
F0.11226851851851852
ssS'CHAN RONNIE'
p93
(dp94
g3
g5
sg4
g5
sg6
g5
sg7
I00
sg8
I-98784
sg9
g5
sg11
g5
sg12
g31
sg13
I-32460
sg14
g5
sg15
g5
sg16
g5
sg17
g5
sg18
I98784
sg19
g5
sg20
g5
sg21
g5
sg22
g31
sg23
g5
sg24
I32460
sg25
g5
sg26
g5
sg27
g5
sg28
g31
ssS'BELFER ROBERT'
p95
(dp96
g3
g5
sg4
I-102500
sg6
g5
sg7
I00
sg8
g5
sg9
g5
sg11
g5
sg12
g31
sg13
I44093
sg14
g5
sg15
g5
sg16
g5
sg17
g5
sg18
I3285
sg19
g5
sg20
I-44093
sg21
g5
sg22
g31
sg23
g5
sg24
g5
sg25
g5
sg26
I102500
sg27
I3285
sg28
g31
ssS'SHANKMAN JEFFREY A'
p97
(dp98
g3
I3221
sg4
g5
sg6
I178979
sg7
I00
sg8
g5
sg9
S'jeffrey.shankman@enron.com'
p99
sg11
I554422
sg12
F0.029183483390251473
sg13
g5
sg14
I1730
sg15
g5
sg16
I2681
sg17
I1191
sg18
g5
sg19
I2000000
sg20
I2072035
sg21
I94
sg22
F0.5371002794163303
sg23
I83
sg24
I630137
sg25
I304110
sg26
I3038702
sg27
I1441898
sg28
F0.030958597538232
ssS'WODRASKA JOHN'
p100
(dp101
g3
g5
sg4
g5
sg6
g5
sg7
I00
sg8
g5
sg9
S'john.wodraska@enron.com'
p102
sg11
g5
sg12
g31
sg13
g5
sg14
g5
sg15
g5
sg16
g5
sg17
I189583
sg18
g5
sg19
g5
sg20
g5
sg21
g5
sg22
g31
sg23
g5
sg24
g5
sg25
g5
sg26
I189583
sg27
g5
sg28
g31
ssS'BERGSIEKER RICHARD P'
p103
(dp104
g3
I383
sg4
g5
sg6
I59175
sg7
I00
sg8
I-485813
sg9
S'rick.bergsieker@enron.com'
p105
sg11
I180250
sg12
F0.010443864229765013
sg13
g5
sg14
I233
sg15
g5
sg16
I59
sg17
I427316
sg18
g5
sg19
I250000
sg20
I659249
sg21
I4
sg22
F0.608355091383812
sg23
I0
sg24
I659249
sg25
I187922
sg26
I618850
sg27
g5
sg28
F0.0
ssS'URQUHART JOHN A'
p106
(dp107
g3
g5
sg4
g5
sg6
I228656
sg7
I00
sg8
I-36666
sg9
g5
sg11
g5
sg12
g31
sg13
g5
sg14
g5
sg15
g5
sg16
g5
sg17
g5
sg18
I36666
sg19
g5
sg20
g5
sg21
g5
sg22
g31
sg23
g5
sg24
g5
sg25
g5
sg26
I228656
sg27
g5
sg28
g31
ssS'BIBI PHILIPPE A'
p108
(dp109
g3
I1607
sg4
g5
sg6
I38559
sg7
I00
sg8
g5
sg9
S'philippe.bibi@enron.com'
p110
sg11
I369721
sg12
F0.01431238332296204
sg13
g5
sg14
I1336
sg15
g5
sg16
I40
sg17
I425688
sg18
g5
sg19
I1000000
sg20
I1843816
sg21
I23
sg22
F0.8313627878033603
sg23
I8
sg24
I378082
sg25
I213625
sg26
I2047593
sg27
I1465734
sg28
F0.2
ssS'RIEKER PAULA H'
p111
(dp112
g3
I1328
sg4
I214678
sg6
I33271
sg7
I01
sg8
I-100000
sg9
S'paula.rieker@enron.com'
p113
sg11
g5
sg12
F0.02635542168674699
sg13
g5
sg14
I1258
sg15
g5
sg16
I82
sg17
I1950
sg18
g5
sg19
I700000
sg20
I1918887
sg21
I35
sg22
F0.947289156626506
sg23
I48
sg24
I283649
sg25
I249201
sg26
I1099100
sg27
I1635238
sg28
F0.5853658536585366
ssS'WHALEY DAVID A'
p114
(dp115
g3
g5
sg4
g5
sg6
g5
sg7
I00
sg8
g5
sg9
g5
sg11
g5
sg12
g31
sg13
g5
sg14
g5
sg15
g5
sg16
g5
sg17
g5
sg18
g5
sg19
g5
sg20
I98718
sg21
g5
sg22
g31
sg23
g5
sg24
g5
sg25
g5
sg26
g5
sg27
I98718
sg28
g31
ssS'BECK SALLY W'
p116
(dp117
g3
I7315
sg4
g5
sg6
I37172
sg7
I00
sg8
g5
sg9
S'sally.beck@enron.com'
p118
sg11
g5
sg12
F0.01968557758031442
sg13
g5
sg14
I2639
sg15
g5
sg16
I4343
sg17
I566
sg18
g5
sg19
I700000
sg20
I126027
sg21
I144
sg22
F0.36076555023923446
sg23
I386
sg24
I126027
sg25
I231330
sg26
I969068
sg27
g5
sg28
F0.08887865530739121
ssS'HAUG DAVID L'
p119
(dp120
g3
I573
sg4
g5
sg6
I475
sg7
I00
sg8
g5
sg9
S'david.haug@enron.com'
p121
sg11
g5
sg12
F0.006980802792321117
sg13
g5
sg14
I471
sg15
g5
sg16
I19
sg17
g5
sg18
g5
sg19
g5
sg20
I2217299
sg21
I4
sg22
F0.8219895287958116
sg23
I7
sg24
I2217299
sg25
g5
sg26
I475
sg27
g5
sg28
F0.3684210526315789
ssS'ECHOLS JOHN B'
p122
(dp123
g3
g5
sg4
g5
sg6
I21530
sg7
I00
sg8
g5
sg9
S'john.echols@enron.com'
p124
sg11
I2234774
sg12
g31
sg13
g5
sg14
g5
sg15
g5
sg16
g5
sg17
I53775
sg18
g5
sg19
I200000
sg20
I1008941
sg21
g5
sg22
g31
sg23
g5
sg24
I407503
sg25
I182245
sg26
I2692324
sg27
I601438
sg28
g31
ssS'MENDELSOHN JOHN'
p125
(dp126
g3
g5
sg4
g5
sg6
I148
sg7
I00
sg8
I-103750
sg9
g5
sg11
g5
sg12
g31
sg13
g5
sg14
g5
sg15
g5
sg16
g5
sg17
g5
sg18
I103750
sg19
g5
sg20
g5
sg21
g5
sg22
g31
sg23
g5
sg24
g5
sg25
g5
sg26
I148
sg27
g5
sg28
g31
ssS'HICKERSON GARY J'
p127
(dp128
g3
I1320
sg4
g5
sg6
I98849
sg7
I00
sg8
g5
sg9
S'gary.hickerson@enron.com'
p129
sg11
I69223
sg12
F0.030303030303030304
sg13
g5
sg14
I900
sg15
g5
sg16
I27
sg17
I1936
sg18
g5
sg19
I1700000
sg20
I441096
sg21
I40
sg22
F0.6818181818181818
sg23
I1
sg24
I441096
sg25
I211788
sg26
I2081796
sg27
g5
sg28
F0.037037037037037035
ssS'CLINE KENNETH W'
p130
(dp131
g3
g5
sg4
g5
sg6
g5
sg7
I00
sg8
g5
sg9
g5
sg11
g5
sg12
g31
sg13
I-472568
sg14
g5
sg15
g5
sg16
g5
sg17
g5
sg18
g5
sg19
g5
sg20
I189518
sg21
g5
sg22
g31
sg23
g5
sg24
I662086
sg25
g5
sg26
g5
sg27
g5
sg28
g31
ssS'LEWIS RICHARD'
p132
(dp133
g3
I952
sg4
g5
sg6
g5
sg7
I00
sg8
g5
sg9
S'richard.lewis@enron.com'
p134
sg11
g5
sg12
F0.01050420168067227
sg13
g5
sg14
I739
sg15
g5
sg16
I26
sg17
g5
sg18
g5
sg19
g5
sg20
I850477
sg21
I10
sg22
F0.7762605042016807
sg23
I0
sg24
g5
sg25
g5
sg26
g5
sg27
I850477
sg28
F0.0
ssS'HAYES ROBERT E'
p135
(dp136
g3
I504
sg4
I7961
sg6
g5
sg7
I00
sg8
g5
sg9
S'robert.hayes@enron.com'
p137
sg11
g5
sg12
F0.031746031746031744
sg13
g5
sg14
I50
sg15
g5
sg16
I12
sg17
g5
sg18
g5
sg19
g5
sg20
I151418
sg21
I16
sg22
F0.0992063492063492
sg23
I0
sg24
I151418
sg25
g5
sg26
I7961
sg27
g5
sg28
F0.0
ssS'MCCARTY DANNY J'
p138
(dp139
g3
I1433
sg4
g5
sg6
g5
sg7
I00
sg8
g5
sg9
S'danny.mccarty@enron.com'
p140
sg11
g5
sg12
F0.017445917655268667
sg13
g5
sg14
I508
sg15
g5
sg16
I215
sg17
g5
sg18
g5
sg19
g5
sg20
I758931
sg21
I25
sg22
F0.35450104675505933
sg23
I2
sg24
I94556
sg25
g5
sg26
g5
sg27
I664375
sg28
F0.009302325581395349
ssS'KOPPER MICHAEL J'
p141
(dp142
g3
g5
sg4
g5
sg6
I118134
sg7
I01
sg8
g5
sg9
S'michael.kopper@enron.com'
p143
sg11
I602671
sg12
g31
sg13
g5
sg14
g5
sg15
g5
sg16
g5
sg17
I907502
sg18
g5
sg19
I800000
sg20
I985032
sg21
g5
sg22
g31
sg23
g5
sg24
I985032
sg25
I224305
sg26
I2652612
sg27
g5
sg28
g31
ssS'LEFF DANIEL P'
p144
(dp145
g3
I2822
sg4
g5
sg6
g5
sg7
I00
sg8
g5
sg9
S'dan.leff@enron.com'
p146
sg11
I1387399
sg12
F0.02374202693125443
sg13
g5
sg14
I2672
sg15
g5
sg16
I63
sg17
I3083
sg18
g5
sg19
I1000000
sg20
I360528
sg21
I67
sg22
F0.9468462083628633
sg23
I14
sg24
I360528
sg25
I273746
sg26
I2664228
sg27
g5
sg28
F0.2222222222222222
ssS'LAVORATO JOHN J'
p147
(dp148
g3
I7259
sg4
g5
sg6
I49537
sg7
I00
sg8
g5
sg9
S'john.lavorato@enron.com'
p149
sg11
I2035380
sg12
F0.07273729163796666
sg13
g5
sg14
I3962
sg15
g5
sg16
I2585
sg17
I1552
sg18
g5
sg19
I8000000
sg20
I5167144
sg21
I528
sg22
F0.5458052073288332
sg23
I411
sg24
I1008149
sg25
I339288
sg26
I10425757
sg27
I4158995
sg28
F0.15899419729206962
ssS'BERBERIAN DAVID'
p150
(dp151
g3
g5
sg4
g5
sg6
I11892
sg7
I00
sg8
g5
sg9
S'david.berberian@enron.com'
p152
sg11
g5
sg12
g31
sg13
g5
sg14
g5
sg15
g5
sg16
g5
sg17
g5
sg18
g5
sg19
g5
sg20
I2493616
sg21
g5
sg22
g31
sg23
g5
sg24
I869220
sg25
I216582
sg26
I228474
sg27
I1624396
sg28
g31
ssS'DETMERING TIMOTHY J'
p153
(dp154
g3
g5
sg4
I875307
sg6
I52255
sg7
I00
sg8
I-775241
sg9
S'timothy.detmering@enron.com'
p155
sg11
I415657
sg12
g31
sg13
I-315068
sg14
g5
sg15
g5
sg16
g5
sg17
I1105
sg18
g5
sg19
I425000
sg20
I2027865
sg21
g5
sg22
g31
sg23
g5
sg24
I315068
sg25
I210500
sg26
I1204583
sg27
I2027865
sg28
g31
ssS'WAKEHAM JOHN'
p156
(dp157
g3
g5
sg4
g5
sg6
I103773
sg7
I00
sg8
g5
sg9
g5
sg11
g5
sg12
g31
sg13
g5
sg14
g5
sg15
g5
sg16
g5
sg17
g5
sg18
I109298
sg19
g5
sg20
g5
sg21
g5
sg22
g31
sg23
g5
sg24
g5
sg25
g5
sg26
I213071
sg27
g5
sg28
g31
ssS'POWERS WILLIAM'
p158
(dp159
g3
I653
sg4
g5
sg6
g5
sg7
I00
sg8
I-17500
sg9
S'ken.powers@enron.com'
p160
sg11
g5
sg12
F0.0
sg13
g5
sg14
I12
sg15
g5
sg16
I26
sg17
g5
sg18
I17500
sg19
g5
sg20
g5
sg21
I0
sg22
F0.018376722817764167
sg23
I0
sg24
g5
sg25
g5
sg26
g5
sg27
g5
sg28
F0.0
ssS'GOLD JOSEPH'
p161
(dp162
g3
g5
sg4
g5
sg6
g5
sg7
I00
sg8
g5
sg9
S'joe.gold@enron.com'
p163
sg11
I304805
sg12
g31
sg13
g5
sg14
g5
sg15
g5
sg16
g5
sg17
I819288
sg18
g5
sg19
I750000
sg20
I877611
sg21
g5
sg22
g31
sg23
g5
sg24
I441096
sg25
I272880
sg26
I2146973
sg27
I436515
sg28
g31
ssS'BANNANTINE JAMES M'
p164
(dp165
g3
I566
sg4
g5
sg6
I56301
sg7
I00
sg8
I-5104
sg9
S'james.bannantine@enron.com'
p166
sg11
g5
sg12
F0.06890459363957598
sg13
I-560222
sg14
I465
sg15
g5
sg16
I29
sg17
I864523
sg18
g5
sg19
g5
sg20
I5243487
sg21
I39
sg22
F0.8215547703180212
sg23
I0
sg24
I1757552
sg25
I477
sg26
I916197
sg27
I4046157
sg28
F0.0
ssS'DUNCAN JOHN H'
p167
(dp168
g3
g5
sg4
g5
sg6
g5
sg7
I00
sg8
I-25000
sg9
g5
sg11
g5
sg12
g31
sg13
g5
sg14
g5
sg15
g5
sg16
g5
sg17
g5
sg18
I102492
sg19
g5
sg20
I371750
sg21
g5
sg22
g31
sg23
g5
sg24
g5
sg25
g5
sg26
I77492
sg27
I371750
sg28
g31
ssS'SHAPIRO RICHARD S'
p169
(dp170
g3
I15149
sg4
g5
sg6
I137767
sg7
I00
sg8
g5
sg9
S'richard.shapiro@enron.com'
p171
sg11
g5
sg12
F0.0048848108786058485
sg13
g5
sg14
I4527
sg15
g5
sg16
I1215
sg17
I705
sg18
g5
sg19
I650000
sg20
I987001
sg21
I74
sg22
F0.29883160604660375
sg23
I65
sg24
I379164
sg25
I269076
sg26
I1057548
sg27
I607837
sg28
F0.053497942386831275
ssS'SHERRIFF JOHN R'
p172
(dp173
g3
I3187
sg4
g5
sg6
g5
sg7
I00
sg8
g5
sg9
S'john.sherriff@enron.com'
p174
sg11
I554422
sg12
F0.008785691873235017
sg13
g5
sg14
I2103
sg15
g5
sg16
I92
sg17
I1852186
sg18
g5
sg19
I1500000
sg20
I3128982
sg21
I28
sg22
F0.6598682146219015
sg23
I23
sg24
I1293424
sg25
I428780
sg26
I4335388
sg27
I1835558
sg28
F0.25
ssS'SHELBY REX'
p175
(dp176
g3
I225
sg4
g5
sg6
I22884
sg7
I01
sg8
I-4167
sg9
S'rex.shelby@enron.com'
p177
sg11
g5
sg12
F0.057777777777777775
sg13
g5
sg14
I91
sg15
g5
sg16
I39
sg17
I1573324
sg18
g5
sg19
I200000
sg20
I2493616
sg21
I13
sg22
F0.40444444444444444
sg23
I14
sg24
I869220
sg25
I211844
sg26
I2003885
sg27
I1624396
sg28
F0.358974358974359
ssS'LEMAISTRE CHARLES'
p178
(dp179
g3
g5
sg4
g5
sg6
g5
sg7
I00
sg8
I-25000
sg9
g5
sg11
g5
sg12
g31
sg13
g5
sg14
g5
sg15
g5
sg16
g5
sg17
g5
sg18
I112492
sg19
g5
sg20
I412878
sg21
g5
sg22
g31
sg23
g5
sg24
g5
sg25
g5
sg26
I87492
sg27
I412878
sg28
g31
ssS'DEFFNER JOSEPH M'
p180
(dp181
g3
I714
sg4
g5
sg6
I41626
sg7
I00
sg8
g5
sg9
S'joseph.deffner@enron.com'
p182
sg11
I335349
sg12
F0.16106442577030813
sg13
g5
sg14
I552
sg15
g5
sg16
I74
sg17
I25553
sg18
g5
sg19
I600000
sg20
I159211
sg21
I115
sg22
F0.773109243697479
sg23
I4
sg24
I141833
sg25
I206121
sg26
I1208649
sg27
I17378
sg28
F0.05405405405405406
ssS'KISHKILL JOSEPH G'
p183
(dp184
g3
g5
sg4
g5
sg6
I116335
sg7
I00
sg8
I-51042
sg9
S'joe.kishkill@enron.com'
p185
sg11
g5
sg12
g31
sg13
g5
sg14
g5
sg15
g5
sg16
g5
sg17
I465357
sg18
g5
sg19
g5
sg20
I1034346
sg21
g5
sg22
g31
sg23
g5
sg24
I1034346
sg25
I174246
sg26
I704896
sg27
g5
sg28
g31
ssS'WHALLEY LAWRENCE G'
p186
(dp187
g3
I6019
sg4
g5
sg6
I57838
sg7
I00
sg8
g5
sg9
S'greg.whalley@enron.com'
p188
sg11
I808346
sg12
F0.03090214321315833
sg13
g5
sg14
I3920
sg15
g5
sg16
I556
sg17
I301026
sg18
g5
sg19
I3000000
sg20
I6079137
sg21
I186
sg22
F0.6512709752450573
sg23
I24
sg24
I2796177
sg25
I510364
sg26
I4677574
sg27
I3282960
sg28
F0.04316546762589928
ssS'MCCONNELL MICHAEL S'
p189
(dp190
g3
I3329
sg4
g5
sg6
I81364
sg7
I00
sg8
g5
sg9
S'mike.mcconnell@enron.com'
p191
sg11
I554422
sg12
F0.02763592670471613
sg13
g5
sg14
I2189
sg15
g5
sg16
I2742
sg17
I540
sg18
g5
sg19
I1100000
sg20
I3101279
sg21
I92
sg22
F0.657554821267648
sg23
I194
sg24
I1478269
sg25
I365038
sg26
I2101364
sg27
I1623010
sg28
F0.07075127644055434
ssS'PIRO JIM'
p192
(dp193
g3
I58
sg4
g5
sg6
g5
sg7
I00
sg8
g5
sg9
S'jim.piro@enron.com'
p194
sg11
g5
sg12
F0.0
sg13
g5
sg14
I3
sg15
g5
sg16
I16
sg17
g5
sg18
g5
sg19
g5
sg20
I47304
sg21
I0
sg22
F0.05172413793103448
sg23
I1
sg24
I47304
sg25
g5
sg26
g5
sg27
g5
sg28
F0.0625
ssS'DELAINEY DAVID W'
p195
(dp196
g3
I3093
sg4
g5
sg6
I86174
sg7
I01
sg8
g5
sg9
S'david.delainey@enron.com'
p197
sg11
I1294981
sg12
F0.02133850630455868
sg13
g5
sg14
I2097
sg15
g5
sg16
I3069
sg17
I1661
sg18
g5
sg19
I3000000
sg20
I3614261
sg21
I66
sg22
F0.6779825412221144
sg23
I609
sg24
I1323148
sg25
I365163
sg26
I4747979
sg27
I2291113
sg28
F0.198435972629521
ssS'SULLIVAN-SHAKLOVITZ COLLEEN'
p198
(dp199
g3
g5
sg4
I181993
sg6
g5
sg7
I00
sg8
g5
sg9
g5
sg11
I554422
sg12
g31
sg13
g5
sg14
g5
sg15
g5
sg16
g5
sg17
I162
sg18
g5
sg19
I100000
sg20
I1362375
sg21
g5
sg22
g31
sg23
g5
sg24
g5
sg25
I162779
sg26
I999356
sg27
I1362375
sg28
g31
ssS'WROBEL BRUCE'
p200
(dp201
g3
g5
sg4
g5
sg6
g5
sg7
I00
sg8
g5
sg9
g5
sg11
g5
sg12
g31
sg13
g5
sg14
g5
sg15
g5
sg16
g5
sg17
g5
sg18
g5
sg19
g5
sg20
I139130
sg21
g5
sg22
g31
sg23
g5
sg24
g5
sg25
g5
sg26
g5
sg27
I139130
sg28
g31
ssS'LINDHOLM TOD A'
p202
(dp203
g3
g5
sg4
I204075
sg6
I57727
sg7
I00
sg8
g5
sg9
S'tod.lindholm@enron.com'
p204
sg11
I175000
sg12
g31
sg13
g5
sg14
g5
sg15
g5
sg16
g5
sg17
I2630
sg18
g5
sg19
I200000
sg20
I3064208
sg21
g5
sg22
g31
sg23
g5
sg24
I514847
sg25
I236457
sg26
I875889
sg27
I2549361
sg28
g31
ssS'MEYER JEROME J'
p205
(dp206
g3
g5
sg4
g5
sg6
I2151
sg7
I00
sg8
I-38346
sg9
g5
sg11
g5
sg12
g31
sg13
g5
sg14
g5
sg15
g5
sg16
g5
sg17
g5
sg18
I38346
sg19
g5
sg20
g5
sg21
g5
sg22
g31
sg23
g5
sg24
g5
sg25
g5
sg26
I2151
sg27
g5
sg28
g31
ssS'LAY KENNETH L'
p207
(dp208
g3
I4273
sg4
I202911
sg6
I99832
sg7
I01
sg8
I-300000
sg9
S'kenneth.lay@enron.com'
p209
sg11
I3600000
sg12
F0.028785396676807865
sg13
g5
sg14
I2411
sg15
I81525000
sg16
I36
sg17
I10359729
sg18
g5
sg19
I7000000
sg20
I49110078
sg21
I123
sg22
F0.5642405803884858
sg23
I16
sg24
I14761694
sg25
I1072321
sg26
I103559793
sg27
I34348384
sg28
F0.4444444444444444
ssS'BUTTS ROBERT H'
p210
(dp211
g3
g5
sg4
g5
sg6
I9410
sg7
I00
sg8
I-75000
sg9
S'bob.butts@enron.com'
p212
sg11
I175000
sg12
g31
sg13
g5
sg14
g5
sg15
g5
sg16
g5
sg17
I150656
sg18
g5
sg19
I750000
sg20
I417619
sg21
g5
sg22
g31
sg23
g5
sg24
I417619
sg25
I261516
sg26
I1271582
sg27
g5
sg28
g31
ssS'OLSON CINDY K'
p213
(dp214
g3
I1184
sg4
I77716
sg6
I63791
sg7
I00
sg8
g5
sg9
S'cindy.olson@enron.com'
p215
sg11
I100000
sg12
F0.016891891891891893
sg13
g5
sg14
I856
sg15
g5
sg16
I52
sg17
I972
sg18
g5
sg19
I750000
sg20
I2606763
sg21
I20
sg22
F0.722972972972973
sg23
I15
sg24
I969729
sg25
I329078
sg26
I1321557
sg27
I1637034
sg28
F0.28846153846153844
ssS'MCDONALD REBECCA'
p216
(dp217
g3
I894
sg4
g5
sg6
g5
sg7
I00
sg8
g5
sg9
S'rebecca.mcdonald@enron.com'
p218
sg11
g5
sg12
F0.06040268456375839
sg13
g5
sg14
I720
sg15
g5
sg16
I13
sg17
g5
sg18
g5
sg19
g5
sg20
I1691366
sg21
I54
sg22
F0.8053691275167785
sg23
I1
sg24
I934065
sg25
g5
sg26
g5
sg27
I757301
sg28
F0.07692307692307693
ssS'CUMBERLAND MICHAEL S'
p219
(dp220
g3
g5
sg4
g5
sg6
I22344
sg7
I00
sg8
g5
sg9
g5
sg11
I275000
sg12
g31
sg13
g5
sg14
g5
sg15
g5
sg16
g5
sg17
I713
sg18
g5
sg19
I325000
sg20
I207940
sg21
g5
sg22
g31
sg23
g5
sg24
I207940
sg25
I184899
sg26
I807956
sg27
g5
sg28
g31
ssS'GAHN ROBERT S'
p221
(dp222
g3
g5
sg4
I73122
sg6
I50080
sg7
I00
sg8
I-1042
sg9
g5
sg11
g5
sg12
g31
sg13
g5
sg14
g5
sg15
g5
sg16
g5
sg17
I76547
sg18
g5
sg19
I509870
sg20
I318607
sg21
g5
sg22
g31
sg23
g5
sg24
I235370
sg25
I192008
sg26
I900585
sg27
I83237
sg28
g31
ssS'MCCLELLAN GEORGE'
p223
(dp224
g3
I1744
sg4
g5
sg6
I228763
sg7
I00
sg8
I-125000
sg9
S'george.mcclellan@enron.com'
p225
sg11
g5
sg12
F0.02981651376146789
sg13
g5
sg14
I1469
sg15
g5
sg16
I49
sg17
I51587
sg18
g5
sg19
I900000
sg20
I947861
sg21
I52
sg22
F0.8423165137614679
sg23
I0
sg24
I441096
sg25
I263413
sg26
I1318763
sg27
I506765
sg28
F0.0
ssS'HERMANN ROBERT J'
p226
(dp227
g3
g5
sg4
g5
sg6
I48357
sg7
I00
sg8
I-280000
sg9
S'robert.hermann@enron.com'
p228
sg11
I150000
sg12
g31
sg13
g5
sg14
g5
sg15
g5
sg16
g5
sg17
I416441
sg18
g5
sg19
I700000
sg20
I668132
sg21
g5
sg22
g31
sg23
g5
sg24
I480632
sg25
I262663
sg26
I1297461
sg27
I187500
sg28
g31
ssS'SCRIMSHAW MATTHEW'
p229
(dp230
g3
g5
sg4
g5
sg6
g5
sg7
I00
sg8
g5
sg9
S'matthew.scrimshaw@enron.com'
p231
sg11
g5
sg12
g31
sg13
g5
sg14
g5
sg15
g5
sg16
g5
sg17
g5
sg18
g5
sg19
g5
sg20
I759557
sg21
g5
sg22
g31
sg23
g5
sg24
g5
sg25
g5
sg26
g5
sg27
I759557
sg28
g31
ssS'GATHMANN WILLIAM D'
p232
(dp233
g3
g5
sg4
g5
sg6
g5
sg7
I00
sg8
g5
sg9
g5
sg11
g5
sg12
g31
sg13
I-72419
sg14
g5
sg15
g5
sg16
g5
sg17
g5
sg18
g5
sg19
g5
sg20
I1945360
sg21
g5
sg22
g31
sg23
g5
sg24
I264013
sg25
g5
sg26
g5
sg27
I1753766
sg28
g31
ssS'HAEDICKE MARK E'
p234
(dp235
g3
I4009
sg4
I2157527
sg6
I76169
sg7
I00
sg8
I-934484
sg9
S'mark.haedicke@enron.com'
p236
sg11
I983346
sg12
F0.04489897730107259
sg13
I-329825
sg14
I1847
sg15
g5
sg16
I1941
sg17
I52382
sg18
g5
sg19
I1150000
sg20
I803094
sg21
I180
sg22
F0.4607133948615615
sg23
I61
sg24
I524169
sg25
I374125
sg26
I3859065
sg27
I608750
sg28
F0.03142709943328181
ssS'BOWEN JR RAYMOND M'
p237
(dp238
g3
I1858
sg4
g5
sg6
I65907
sg7
I01
sg8
I-833
sg9
S'raymond.bowen@enron.com'
p239
sg11
I974293
sg12
F0.07534983853606028
sg13
g5
sg14
I1593
sg15
g5
sg16
I27
sg17
I1621
sg18
g5
sg19
I1350000
sg20
I252055
sg21
I140
sg22
F0.8573735199138859
sg23
I15
sg24
I252055
sg25
I278601
sg26
I2669589
sg27
g5
sg28
F0.5555555555555556
ssS'GILLIS JOHN'
p240
(dp241
g3
g5
sg4
g5
sg6
g5
sg7
I00
sg8
g5
sg9
g5
sg11
g5
sg12
g31
sg13
g5
sg14
g5
sg15
g5
sg16
g5
sg17
g5
sg18
g5
sg19
g5
sg20
I85641
sg21
g5
sg22
g31
sg23
g5
sg24
I75838
sg25
g5
sg26
g5
sg27
I9803
sg28
g31
ssS'FITZGERALD JAY L'
p242
(dp243
g3
I936
sg4
g5
sg6
I23870
sg7
I00
sg8
g5
sg9
S'jay.fitzgerald@enron.com'
p244
sg11
I556416
sg12
F0.0010683760683760685
sg13
g5
sg14
I723
sg15
g5
sg16
I16
sg17
I285414
sg18
g5
sg19
I350000
sg20
I1621236
sg21
I1
sg22
F0.7724358974358975
sg23
I8
sg24
I956775
sg25
I199157
sg26
I1414857
sg27
I664461
sg28
F0.5
ssS'MORAN MICHAEL P'
p245
(dp246
g3
I672
sg4
g5
sg6
g5
sg7
I00
sg8
g5
sg9
S'michael.moran@enron.com'
p247
sg11
g5
sg12
F0.0
sg13
g5
sg14
I127
sg15
g5
sg16
I19
sg17
g5
sg18
g5
sg19
g5
sg20
I221141
sg21
I0
sg22
F0.18898809523809523
sg23
I0
sg24
I161602
sg25
g5
sg26
g5
sg27
I59539
sg28
F0.0
ssS'REDMOND BRIAN L'
p248
(dp249
g3
I1671
sg4
g5
sg6
I14689
sg7
I00
sg8
g5
sg9
S'brian.redmond@enron.com'
p250
sg11
g5
sg12
F0.12208258527827648
sg13
g5
sg14
I1063
sg15
g5
sg16
I221
sg17
g5
sg18
g5
sg19
g5
sg20
I7890324
sg21
I204
sg22
F0.6361460203470976
sg23
I49
sg24
I381285
sg25
I96840
sg26
I111529
sg27
I7509039
sg28
F0.22171945701357465
ssS'BAZELIDES PHILIP J'
p251
(dp252
g3
g5
sg4
I684694
sg6
g5
sg7
I00
sg8
g5
sg9
g5
sg11
I93750
sg12
g31
sg13
g5
sg14
g5
sg15
g5
sg16
g5
sg17
I874
sg18
g5
sg19
g5
sg20
I1599641
sg21
g5
sg22
g31
sg23
g5
sg24
g5
sg25
I80818
sg26
I860136
sg27
I1599641
sg28
g31
ssS'BELDEN TIMOTHY N'
p253
(dp254
g3
I7991
sg4
I2144013
sg6
I17355
sg7
I01
sg8
I-2334434
sg9
S'tim.belden@enron.com'
p255
sg11
g5
sg12
F0.028532098610937303
sg13
g5
sg14
I5521
sg15
g5
sg16
I484
sg17
I210698
sg18
g5
sg19
I5249999
sg20
I1110705
sg21
I228
sg22
F0.6909022650481792
sg23
I108
sg24
I157569
sg25
I213999
sg26
I5501630
sg27
I953136
sg28
F0.2231404958677686
ssS'DURAN WILLIAM D'
p256
(dp257
g3
I904
sg4
g5
sg6
I25785
sg7
I00
sg8
g5
sg9
S'w.duran@enron.com'
p258
sg11
I1105218
sg12
F0.1172566371681416
sg13
g5
sg14
I599
sg15
g5
sg16
I12
sg17
I1568
sg18
g5
sg19
I750000
sg20
I1640910
sg21
I106
sg22
F0.6626106194690266
sg23
I3
sg24
I189041
sg25
I210692
sg26
I2093263
sg27
I1451869
sg28
F0.25
ssS'THORN TERENCE H'
p259
(dp260
g3
I266
sg4
I16586
sg6
I46145
sg7
I00
sg8
g5
sg9
S'terence.thorn@enron.com'
p261
sg11
I200000
sg12
F0.0
sg13
g5
sg14
I73
sg15
g5
sg16
I41
sg17
I426629
sg18
g5
sg19
g5
sg20
I4817796
sg21
I0
sg22
F0.2744360902255639
sg23
I0
sg24
I365320
sg25
I222093
sg26
I911453
sg27
I4452476
sg28
F0.0
ssS'FASTOW ANDREW S'
p262
(dp263
g3
g5
sg4
g5
sg6
I55921
sg7
I01
sg8
I-1386055
sg9
S'andrew.fastow@enron.com'
p264
sg11
I1736055
sg12
g31
sg13
g5
sg14
g5
sg15
g5
sg16
g5
sg17
I277464
sg18
g5
sg19
I1300000
sg20
I1794412
sg21
g5
sg22
g31
sg23
g5
sg24
I1794412
sg25
I440698
sg26
I2424083
sg27
g5
sg28
g31
ssS'FOY JOE'
p265
(dp266
g3
I57
sg4
I181755
sg6
g5
sg7
I00
sg8
g5
sg9
S'tracy.foy@enron.com'
p267
sg11
g5
sg12
F0.0
sg13
g5
sg14
I2
sg15
g5
sg16
I13
sg17
g5
sg18
g5
sg19
g5
sg20
I343434
sg21
I0
sg22
F0.03508771929824561
sg23
I0
sg24
g5
sg25
g5
sg26
I181755
sg27
I343434
sg28
F0.0
ssS'CALGER CHRISTOPHER F'
p268
(dp269
g3
I2598
sg4
g5
sg6
I35818
sg7
I01
sg8
I-262500
sg9
S'christopher.calger@enron.com'
p270
sg11
I375304
sg12
F0.07659738260200154
sg13
g5
sg14
I2188
sg15
g5
sg16
I144
sg17
I486
sg18
g5
sg19
I1250000
sg20
I126027
sg21
I199
sg22
F0.8421862971516552
sg23
I25
sg24
I126027
sg25
I240189
sg26
I1639297
sg27
g5
sg28
F0.1736111111111111
ssS'RICE KENNETH D'
p271
(dp272
g3
I905
sg4
g5
sg6
I46950
sg7
I01
sg8
I-3504386
sg9
S'ken.rice@enron.com'
p273
sg11
I1617011
sg12
F0.04640883977900553
sg13
g5
sg14
I864
sg15
g5
sg16
I18
sg17
I174839
sg18
g5
sg19
I1750000
sg20
I22542539
sg21
I42
sg22
F0.9546961325966851
sg23
I4
sg24
I2748364
sg25
I420636
sg26
I505050
sg27
I19794175
sg28
F0.2222222222222222
ssS'KAMINSKI WINCENTY J'
p274
(dp275
g3
I4607
sg4
g5
sg6
I83585
sg7
I00
sg8
g5
sg9
S'vince.kaminski@enron.com'
p276
sg11
I323466
sg12
F0.008899500759713479
sg13
g5
sg14
I583
sg15
g5
sg16
I14368
sg17
I4669
sg18
g5
sg19
I400000
sg20
I976037
sg21
I41
sg22
F0.1265465595832429
sg23
I171
sg24
I126027
sg25
I275101
sg26
I1086821
sg27
I850010
sg28
F0.011901447661469933
ssS'LOCKHART EUGENE E'
p277
(dp278
g3
g5
sg4
g5
sg6
g5
sg7
I00
sg8
g5
sg9
g5
sg11
g5
sg12
g31
sg13
g5
sg14
g5
sg15
g5
sg16
g5
sg17
g5
sg18
g5
sg19
g5
sg20
g5
sg21
g5
sg22
g31
sg23
g5
sg24
g5
sg25
g5
sg26
g5
sg27
g5
sg28
g31
ssS'COX DAVID'
p279
(dp280
g3
I102
sg4
g5
sg6
I27861
sg7
I00
sg8
I-41250
sg9
S'chip.cox@enron.com'
p281
sg11
g5
sg12
F0.0
sg13
g5
sg14
I71
sg15
g5
sg16
I33
sg17
I494
sg18
g5
sg19
I800000
sg20
I495633
sg21
I0
sg22
F0.696078431372549
sg23
I4
sg24
I378082
sg25
I314288
sg26
I1101393
sg27
I117551
sg28
F0.12121212121212122
ssS'OVERDYKE JR JERE C'
p282
(dp283
g3
g5
sg4
g5
sg6
I18834
sg7
I00
sg8
g5
sg9
S'jere.overdyke@enron.com'
p284
sg11
I135836
sg12
g31
sg13
g5
sg14
g5
sg15
g5
sg16
g5
sg17
I176
sg18
g5
sg19
g5
sg20
I7307594
sg21
g5
sg22
g31
sg23
g5
sg24
I2041016
sg25
I94941
sg26
I249787
sg27
I5266578
sg28
g31
ssS'PEREIRA PAULO V. FERRAZ'
p285
(dp286
g3
g5
sg4
g5
sg6
I27942
sg7
I00
sg8
I-101250
sg9
g5
sg11
g5
sg12
g31
sg13
g5
sg14
g5
sg15
g5
sg16
g5
sg17
g5
sg18
I101250
sg19
g5
sg20
g5
sg21
g5
sg22
g31
sg23
g5
sg24
g5
sg25
g5
sg26
I27942
sg27
g5
sg28
g31
ssS'STABLER FRANK'
p287
(dp288
g3
g5
sg4
g5
sg6
I16514
sg7
I00
sg8
g5
sg9
S'frank.stabler@enron.com'
p289
sg11
g5
sg12
g31
sg13
g5
sg14
g5
sg15
g5
sg16
g5
sg17
I356071
sg18
g5
sg19
I500000
sg20
I511734
sg21
g5
sg22
g31
sg23
g5
sg24
I511734
sg25
I239502
sg26
I1112087
sg27
g5
sg28
g31
ssS'SKILLING JEFFREY K'
p290
(dp291
g3
I3627
sg4
g5
sg6
I29336
sg7
I01
sg8
g5
sg9
S'jeff.skilling@enron.com'
p292
sg11
I1920000
sg12
F0.0242624758753791
sg13
g5
sg14
I2042
sg15
g5
sg16
I108
sg17
I22122
sg18
g5
sg19
I5600000
sg20
I26093672
sg21
I88
sg22
F0.5629997242900469
sg23
I30
sg24
I6843672
sg25
I1111258
sg26
I8682716
sg27
I19250000
sg28
F0.2777777777777778
ssS'BLAKE JR. NORMAN P'
p293
(dp294
g3
g5
sg4
g5
sg6
I1279
sg7
I00
sg8
I-113784
sg9
g5
sg11
g5
sg12
g31
sg13
g5
sg14
g5
sg15
g5
sg16
g5
sg17
g5
sg18
I113784
sg19
g5
sg20
g5
sg21
g5
sg22
g31
sg23
g5
sg24
g5
sg25
g5
sg26
I1279
sg27
g5
sg28
g31
ssS'SHERRICK JEFFREY B'
p295
(dp296
g3
I613
sg4
g5
sg6
g5
sg7
I00
sg8
g5
sg9
S'jeffrey.sherrick@enron.com'
p297
sg11
g5
sg12
F0.0636215334420881
sg13
g5
sg14
I583
sg15
g5
sg16
I25
sg17
g5
sg18
g5
sg19
g5
sg20
I1832468
sg21
I39
sg22
F0.9510603588907015
sg23
I18
sg24
I405999
sg25
g5
sg26
g5
sg27
I1426469
sg28
F0.72
ssS'PRENTICE JAMES'
p298
(dp299
g3
g5
sg4
I564348
sg6
g5
sg7
I00
sg8
g5
sg9
S'james.prentice@enron.com'
p300
sg11
g5
sg12
g31
sg13
g5
sg14
g5
sg15
g5
sg16
g5
sg17
g5
sg18
g5
sg19
g5
sg20
I1095040
sg21
g5
sg22
g31
sg23
g5
sg24
I208809
sg25
g5
sg26
I564348
sg27
I886231
sg28
g31
ssS'GRAY RODNEY'
p301
(dp302
g3
g5
sg4
I93585
sg6
g5
sg7
I00
sg8
g5
sg9
g5
sg11
I365625
sg12
g31
sg13
g5
sg14
g5
sg15
g5
sg16
g5
sg17
I680833
sg18
g5
sg19
g5
sg20
g5
sg21
g5
sg22
g31
sg23
g5
sg24
g5
sg25
I6615
sg26
I1146658
sg27
g5
sg28
g31
ssS'PICKERING MARK R'
p303
(dp304
g3
I898
sg4
g5
sg6
I31653
sg7
I00
sg8
g5
sg9
S'mark.pickering@enron.com'
p305
sg11
g5
sg12
F0.0077951002227171495
sg13
g5
sg14
I728
sg15
I400000
sg16
I67
sg17
g5
sg18
g5
sg19
I300000
sg20
I28798
sg21
I7
sg22
F0.8106904231625836
sg23
I0
sg24
g5
sg25
I655037
sg26
I1386690
sg27
I28798
sg28
F0.0
ssS'THE TRAVEL AGENCY IN THE PARK'
p306
(dp307
g3
g5
sg4
g5
sg6
g5
sg7
I00
sg8
g5
sg9
g5
sg11
g5
sg12
g31
sg13
g5
sg14
g5
sg15
g5
sg16
g5
sg17
I362096
sg18
g5
sg19
g5
sg20
g5
sg21
g5
sg22
g31
sg23
g5
sg24
g5
sg25
g5
sg26
I362096
sg27
g5
sg28
g31
ssS'NOLES JAMES L'
p308
(dp309
g3
g5
sg4
I774401
sg6
g5
sg7
I00
sg8
g5
sg9
g5
sg11
g5
sg12
g31
sg13
I-94556
sg14
g5
sg15
g5
sg16
g5
sg17
g5
sg18
g5
sg19
g5
sg20
I368705
sg21
g5
sg22
g31
sg23
g5
sg24
I463261
sg25
g5
sg26
I774401
sg27
g5
sg28
g31
ssS'KEAN STEVEN J'
p310
(dp311
g3
I12754
sg4
g5
sg6
I41953
sg7
I00
sg8
g5
sg9
S'steven.kean@enron.com'
p312
sg11
I300000
sg12
F0.010976948408342482
sg13
g5
sg14
I3639
sg15
g5
sg16
I6759
sg17
I1231
sg18
g5
sg19
I1000000
sg20
I6153642
sg21
I140
sg22
F0.2853222518425592
sg23
I387
sg24
I4131594
sg25
I404338
sg26
I1747522
sg27
I2022048
sg28
F0.05725699067909454
ssS'FOWLER PEGGY'
p313
(dp314
g3
I517
sg4
g5
sg6
g5
sg7
I00
sg8
g5
sg9
S'kulvinder.fowler@enron.com'
p315
sg11
g5
sg12
F0.0
sg13
g5
sg14
I10
sg15
g5
sg16
I36
sg17
g5
sg18
g5
sg19
g5
sg20
I1884748
sg21
I0
sg22
F0.019342359767891684
sg23
I0
sg24
I560170
sg25
g5
sg26
g5
sg27
I1324578
sg28
F0.0
ssS'WASAFF GEORGE'
p316
(dp317
g3
I400
sg4
I831299
sg6
g5
sg7
I00
sg8
I-583325
sg9
S'george.wasaff@enron.com'
p318
sg11
I200000
sg12
F0.055
sg13
g5
sg14
I337
sg15
g5
sg16
I30
sg17
I1425
sg18
g5
sg19
I325000
sg20
I2056427
sg21
I22
sg22
F0.8425
sg23
I7
sg24
I388167
sg25
I259996
sg26
I1034395
sg27
I1668260
sg28
F0.23333333333333334
ssS'WHITE JR THOMAS E'
p319
(dp320
g3
g5
sg4
g5
sg6
I81353
sg7
I00
sg8
g5
sg9
S'thomas.white@enron.com'
p321
sg11
g5
sg12
g31
sg13
g5
sg14
g5
sg15
g5
sg16
g5
sg17
I1085463
sg18
g5
sg19
I450000
sg20
I15144123
sg21
g5
sg22
g31
sg23
g5
sg24
I13847074
sg25
I317543
sg26
I1934359
sg27
I1297049
sg28
g31
ssS'CHRISTODOULOU DIOMEDES'
p322
(dp323
g3
g5
sg4
g5
sg6
g5
sg7
I00
sg8
g5
sg9
S'diomedes.christodoulou@enron.com'
p324
sg11
g5
sg12
g31
sg13
g5
sg14
g5
sg15
g5
sg16
g5
sg17
g5
sg18
g5
sg19
g5
sg20
I6077885
sg21
g5
sg22
g31
sg23
g5
sg24
I950730
sg25
g5
sg26
g5
sg27
I5127155
sg28
g31
ssS'ALLEN PHILLIP K'
p325
(dp326
g3
I2902
sg4
I2869717
sg6
I13868
sg7
I00
sg8
I-3081055
sg9
S'phillip.allen@enron.com'
p327
sg11
I304805
sg12
F0.016195727084769126
sg13
I-126027
sg14
I1407
sg15
g5
sg16
I2195
sg17
I152
sg18
g5
sg19
I4175000
sg20
I1729541
sg21
I47
sg22
F0.4848380427291523
sg23
I65
sg24
I126027
sg25
I201955
sg26
I4484442
sg27
I1729541
sg28
F0.029612756264236904
ssS'SHARP VICTORIA T'
p328
(dp329
g3
I3136
sg4
I187469
sg6
I116337
sg7
I00
sg8
g5
sg9
S'vicki.sharp@enron.com'
p330
sg11
I422158
sg12
F0.007653061224489796
sg13
g5
sg14
I2477
sg15
g5
sg16
I136
sg17
I2401
sg18
g5
sg19
I600000
sg20
I494136
sg21
I24
sg22
F0.7898596938775511
sg23
I6
sg24
I213063
sg25
I248146
sg26
I1576511
sg27
I281073
sg28
F0.04411764705882353
ssS'JAEDICKE ROBERT'
p331
(dp332
g3
g5
sg4
g5
sg6
g5
sg7
I00
sg8
I-25000
sg9
g5
sg11
g5
sg12
g31
sg13
I-44093
sg14
g5
sg15
g5
sg16
g5
sg17
g5
sg18
I108750
sg19
g5
sg20
I431750
sg21
g5
sg22
g31
sg23
g5
sg24
I44093
sg25
g5
sg26
I83750
sg27
I431750
sg28
g31
ssS'WINOKUR JR. HERBERT S'
p333
(dp334
g3
g5
sg4
g5
sg6
I1413
sg7
I00
sg8
I-25000
sg9
g5
sg11
g5
sg12
g31
sg13
g5
sg14
g5
sg15
g5
sg16
g5
sg17
g5
sg18
I108579
sg19
g5
sg20
g5
sg21
g5
sg22
g31
sg23
g5
sg24
g5
sg25
g5
sg26
I84992
sg27
g5
sg28
g31
ssS'BROWN MICHAEL'
p335
(dp336
g3
I1486
sg4
g5
sg6
I49288
sg7
I00
sg8
g5
sg9
S'michael.brown@enron.com'
p337
sg11
g5
sg12
F0.008748317631224764
sg13
g5
sg14
I761
sg15
g5
sg16
I41
sg17
g5
sg18
g5
sg19
g5
sg20
g5
sg21
I13
sg22
F0.5121130551816958
sg23
I1
sg24
g5
sg25
g5
sg26
I49288
sg27
g5
sg28
F0.024390243902439025
ssS'BADUM JAMES P'
p338
(dp339
g3
g5
sg4
I178980
sg6
I3486
sg7
I00
sg8
g5
sg9
g5
sg11
g5
sg12
g31
sg13
g5
sg14
g5
sg15
g5
sg16
g5
sg17
g5
sg18
g5
sg19
g5
sg20
I257817
sg21
g5
sg22
g31
sg23
g5
sg24
g5
sg25
g5
sg26
I182466
sg27
I257817
sg28
g31
ssS'HUGHES JAMES A'
p340
(dp341
g3
I719
sg4
g5
sg6
g5
sg7
I00
sg8
g5
sg9
S'james.hughes@enron.com'
p342
sg11
g5
sg12
F0.048678720445062586
sg13
g5
sg14
I589
sg15
g5
sg16
I34
sg17
g5
sg18
g5
sg19
g5
sg20
I1118394
sg21
I35
sg22
F0.8191933240611962
sg23
I5
sg24
I363428
sg25
g5
sg26
g5
sg27
I754966
sg28
F0.14705882352941177
ssS'REYNOLDS LAWRENCE'
p343
(dp344
g3
g5
sg4
I51365
sg6
I8409
sg7
I00
sg8
I-200000
sg9
g5
sg11
I156250
sg12
g31
sg13
I-140264
sg14
g5
sg15
g5
sg16
g5
sg17
I202052
sg18
g5
sg19
I100000
sg20
I4221891
sg21
g5
sg22
g31
sg23
g5
sg24
I201483
sg25
I76399
sg26
I394475
sg27
I4160672
sg28
g31
ssS'DIMICHELE RICHARD G'
p345
(dp346
g3
g5
sg4
g5
sg6
I35812
sg7
I00
sg8
g5
sg9
S'richard.dimichele@enron.com'
p347
sg11
I694862
sg12
g31
sg13
g5
sg14
g5
sg15
g5
sg16
g5
sg17
I374689
sg18
g5
sg19
I1000000
sg20
I8317782
sg21
g5
sg22
g31
sg23
g5
sg24
I126027
sg25
I262788
sg26
I2368151
sg27
I8191755
sg28
g31
ssS'BHATNAGAR SANJAY'
p348
(dp349
g3
I523
sg4
g5
sg6
g5
sg7
I00
sg8
g5
sg9
S'sanjay.bhatnagar@enron.com'
p350
sg11
g5
sg12
F0.0
sg13
I15456290
sg14
I463
sg15
g5
sg16
I29
sg17
I137864
sg18
I137864
sg19
g5
sS'total_stock_value'
p351
S'NaN'
p352
sg21
I0
sg22
F0.8852772466539197
sg23
I1
sg24
I-2604490
sg25
g5
sg26
I15456290
sg27
I2604490
sg28
F0.034482758620689655
ssS'CARTER REBECCA C'
p353
(dp354
g3
I312
sg4
g5
sg6
g5
sg7
I00
sg8
I-159792
sg9
S'rebecca.carter@enron.com'
p355
sg11
I75000
sg12
F0.09294871794871795
sg13
I-307301
sg14
I196
sg15
g5
sg16
I15
sg17
I540
sg18
g5
sg19
I300000
sg20
g5
sg21
I29
sg22
F0.6282051282051282
sg23
I7
sg24
I307301
sg25
I261809
sg26
I477557
sg27
g5
sg28
F0.4666666666666667
ssS'BUCHANAN HAROLD G'
p356
(dp357
g3
I1088
sg4
g5
sg6
I600
sg7
I00
sg8
g5
sg9
S'john.buchanan@enron.com'
p358
sg11
I304805
sg12
F0.0
sg13
g5
sg14
I23
sg15
g5
sg16
I125
sg17
I1215
sg18
g5
sg19
I500000
sg20
I1014505
sg21
I0
sg22
F0.021139705882352942
sg23
I0
sg24
I189041
sg25
I248017
sg26
I1054637
sg27
I825464
sg28
F0.0
ssS'YEAP SOON'
p359
(dp360
g3
g5
sg4
g5
sg6
I55097
sg7
I00
sg8
g5
sg9
g5
sg11
g5
sg12
g31
sg13
g5
sg14
g5
sg15
g5
sg16
g5
sg17
g5
sg18
g5
sg19
g5
sg20
I192758
sg21
g5
sg22
g31
sg23
g5
sg24
g5
sg25
g5
sg26
I55097
sg27
I192758
sg28
g31
ssS'MURRAY JULIA H'
p361
(dp362
g3
I2192
sg4
g5
sg6
I57580
sg7
I00
sg8
g5
sg9
S'julia.murray@enron.com'
p363
sg11
I125000
sg12
F0.005018248175182482
sg13
g5
sg14
I395
sg15
g5
sg16
I45
sg17
I330
sg18
g5
sg19
I400000
sg20
I597461
sg21
I11
sg22
F0.1802007299270073
sg23
I2
sg24
I196983
sg25
I229284
sg26
I812194
sg27
I400478
sg28
F0.044444444444444446
ssS'GARLAND C KEVIN'
p364
(dp365
g3
I209
sg4
g5
sg6
I48405
sg7
I00
sg8
g5
sg9
S'kevin.garland@enron.com'
p366
sg11
I375304
sg12
F0.04784688995215311
sg13
g5
sg14
I178
sg15
g5
sg16
I44
sg17
I60814
sg18
g5
sg19
I850000
sg20
I896153
sg21
I10
sg22
F0.8516746411483254
sg23
I27
sg24
I259907
sg25
I231946
sg26
I1566469
sg27
I636246
sg28
F0.6136363636363636
ssS'DODSON KEITH'
p367
(dp368
g3
I176
sg4
g5
sg6
I28164
sg7
I00
sg8
g5
sg9
S'keith.dodson@enron.com'
p369
sg11
g5
sg12
F0.056818181818181816
sg13
g5
sg14
I114
sg15
g5
sg16
I14
sg17
I774
sg18
g5
sg19
I70000
sg20
g5
sg21
I10
sg22
F0.6477272727272727
sg23
I3
sg24
g5
sg25
I221003
sg26
I319941
sg27
g5
sg28
F0.21428571428571427
ssS'YEAGER F SCOTT'
p370
(dp371
g3
g5
sg4
g5
sg6
I53947
sg7
I01
sg8
g5
sg9
S'scott.yeager@enron.com'
p372
sg11
g5
sg12
g31
sg13
g5
sg14
g5
sg15
g5
sg16
g5
sg17
I147950
sg18
g5
sg19
g5
sg20
I11884758
sg21
g5
sg22
g31
sg23
g5
sg24
I3576206
sg25
I158403
sg26
I360300
sg27
I8308552
sg28
g31
ssS'HIRKO JOSEPH'
p373
(dp374
g3
g5
sg4
I10259
sg6
I77978
sg7
I01
sg8
g5
sg9
S'joe.hirko@enron.com'
p375
sg11
g5
sg12
g31
sg13
g5
sg14
g5
sg15
g5
sg16
g5
sg17
I2856
sg18
g5
sg19
g5
sg20
I30766064
sg21
g5
sg22
g31
sg23
g5
sg24
g5
sg25
g5
sg26
I91093
sg27
I30766064
sg28
g31
ssS'DIETRICH JANET R'
p376
(dp377
g3
I2572
sg4
g5
sg6
I3475
sg7
I00
sg8
g5
sg9
S'janet.dietrich@enron.com'
p378
sg11
I556416
sg12
F0.11858475894245724
sg13
g5
sg14
I1902
sg15
g5
sg16
I63
sg17
I473
sg18
g5
sg19
I600000
sg20
I1865087
sg21
I305
sg22
F0.73950233281493
sg23
I14
sg24
I315068
sg25
I250100
sg26
I1410464
sg27
I1550019
sg28
F0.2222222222222222
ssS'DERRICK JR. JAMES V'
p379
(dp380
g3
I2181
sg4
g5
sg6
I51124
sg7
I00
sg8
I-1284000
sg9
S'james.derrick@enron.com'
p381
sg11
I484000
sg12
F0.029344337459880788
sg13
I-1787380
sg14
I1401
sg15
g5
sg16
I909
sg17
I7482
sg18
g5
sg19
I800000
sg20
I8831913
sg21
I64
sg22
F0.6423658872077029
sg23
I20
sg24
I1787380
sg25
I492375
sg26
I550981
sg27
I8831913
sg28
F0.022002200220022004
ssS'FREVERT MARK A'
p382
(dp383
g3
I3275
sg4
I6426990
sg6
I86987
sg7
I00
sg8
I-3367011
sg9
S'mark.frevert@enron.com'
p384
sg11
I1617011
sg12
F0.07389312977099237
sg13
g5
sg14
I2979
sg15
I2000000
sg16
I21
sg17
I7427621
sg18
g5
sg19
I2000000
sg20
I14622185
sg21
I242
sg22
F0.909618320610687
sg23
I6
sg24
I4188667
sg25
I1060932
sg26
I17252530
sg27
I10433518
sg28
F0.2857142857142857
ssS'PAI LOU L'
p385
(dp386
g3
g5
sg4
g5
sg6
I32047
sg7
I00
sg8
g5
sg9
S'lou.pai@enron.com'
p387
sg11
g5
sg12
g31
sg13
g5
sg14
g5
sg15
g5
sg16
g5
sg17
I1829457
sg18
g5
sg19
I1000000
sg20
I23817930
sg21
g5
sg22
g31
sg23
g5
sg24
I8453763
sg25
I261879
sg26
I3123383
sg27
I15364167
sg28
g31
ssS'BAY FRANKLIN R'
p388
(dp389
g3
g5
sg4
I260455
sg6
I129142
sg7
I00
sg8
I-201641
sg9
S'frank.bay@enron.com'
p390
sg11
g5
sg12
g31
sg13
I-82782
sg14
g5
sg15
g5
sg16
g5
sg17
I69
sg18
g5
sg19
I400000
sg20
I63014
sg21
g5
sg22
g31
sg23
g5
sg24
I145796
sg25
I239671
sg26
I827696
sg27
g5
sg28
g31
ssS'HAYSLETT RODERICK J'
p391
(dp392
g3
I2649
sg4
g5
sg6
g5
sg7
I00
sg8
g5
sg9
S'rod.hayslett@enron.com'
p393
sg11
g5
sg12
F0.01321253303133258
sg13
g5
sg14
I571
sg15
g5
sg16
I1061
sg17
g5
sg18
g5
sg19
g5
sg20
I346663
sg21
I35
sg22
F0.21555303888259722
sg23
I38
sg24
I346663
sg25
g5
sg26
g5
sg27
g5
sg28
F0.03581526861451461
ssS'FUGH JOHN L'
p394
(dp395
g3
g5
sg4
I50591
sg6
g5
sg7
I00
sg8
g5
sg9
g5
sg11
g5
sg12
g31
sg13
g5
sg14
g5
sg15
g5
sg16
g5
sg17
g5
sg18
g5
sg19
g5
sg20
I176378
sg21
g5
sg22
g31
sg23
g5
sg24
g5
sg25
g5
sg26
I50591
sg27
I176378
sg28
g31
ssS'FALLON JAMES B'
p396
(dp397
g3
I1755
sg4
g5
sg6
I95924
sg7
I00
sg8
g5
sg9
S'jim.fallon@enron.com'
p398
sg11
I374347
sg12
F0.023931623931623933
sg13
g5
sg14
I1604
sg15
g5
sg16
I75
sg17
I401481
sg18
g5
sg19
I2500000
sg20
I2332399
sg21
I42
sg22
F0.913960113960114
sg23
I37
sg24
I1392142
sg25
I304588
sg26
I3676340
sg27
I940257
sg28
F0.49333333333333335
ssS'KOENIG MARK E'
p399
(dp400
g3
I2374
sg4
g5
sg6
I127017
sg7
I01
sg8
g5
sg9
S'mark.koenig@enron.com'
p401
sg11
I300000
sg12
F0.02232518955349621
sg13
g5
sg14
I2271
sg15
g5
sg16
I61
sg17
I150458
sg18
g5
sg19
I700000
sg20
I1920055
sg21
I53
sg22
F0.9566133108677338
sg23
I15
sg24
I1248318
sg25
I309946
sg26
I1587421
sg27
I671737
sg28
F0.2459016393442623
ssS'SAVAGE FRANK'
p402
(dp403
g3
g5
sg4
g5
sg6
g5
sg7
I00
sg8
I-121284
sg9
g5
sg11
g5
sg12
g31
sg13
g5
sg14
g5
sg15
g5
sg16
g5
sg17
g5
sg18
I125034
sg19
g5
sg20
g5
sg21
g5
sg22
g31
sg23
g5
sg24
g5
sg25
g5
sg26
I3750
sg27
g5
sg28
g31
ssS'IZZO LAWRENCE L'
p404
(dp405
g3
I496
sg4
g5
sg6
I28093
sg7
I00
sg8
g5
sg9
S'larry.izzo@enron.com'
p406
sg11
I312500
sg12
F0.056451612903225805
sg13
g5
sg14
I437
sg15
g5
sg16
I19
sg17
I1553729
sg18
g5
sg19
g5
sg20
I5819980
sg21
I28
sg22
F0.8810483870967742
sg23
I5
sg24
I3654808
sg25
I85274
sg26
I1979596
sg27
I2165172
sg28
F0.2631578947368421
ssS'TILNEY ELIZABETH A'
p407
(dp408
g3
I460
sg4
g5
sg6
g5
sg7
I00
sg8
I-575000
sg9
S'elizabeth.tilney@enron.com'
p409
sg11
I275000
sg12
F0.021739130434782608
sg13
g5
sg14
I379
sg15
g5
sg16
I19
sg17
I152055
sg18
g5
sg19
I300000
sg20
I1168042
sg21
I10
sg22
F0.8239130434782609
sg23
I11
sg24
I576792
sg25
I247338
sg26
I399393
sg27
I591250
sg28
F0.5789473684210527
ssS'MARTIN AMANDA K'
p410
(dp411
g3
I1522
sg4
I85430
sg6
I8211
sg7
I00
sg8
g5
sg9
S'a..martin@enron.com'
p412
sg11
I5145434
sg12
F0.005256241787122208
sg13
g5
sg14
I477
sg15
g5
sg16
I230
sg17
I2818454
sg18
g5
sg19
g5
sg20
I2070306
sg21
I8
sg22
F0.31340341655716164
sg23
I0
sg24
g5
sg25
I349487
sg26
I8407016
sg27
I2070306
sg28
F0.0
ssS'BUY RICHARD B'
p413
(dp414
g3
I3523
sg4
I649584
sg6
g5
sg7
I00
sg8
I-694862
sg9
S'rick.buy@enron.com'
p415
sg11
I769862
sg12
F0.04428044280442804
sg13
g5
sg14
I2333
sg15
g5
sg16
I1053
sg17
I400572
sg18
g5
sg19
I900000
sg20
I3444470
sg21
I156
sg22
F0.6622196991200682
sg23
I71
sg24
I901657
sg25
I330546
sg26
I2355702
sg27
I2542813
sg28
F0.06742640075973409
ssS'GRAMM WENDY L'
p416
(dp417
g3
g5
sg4
g5
sg6
g5
sg7
I00
sg8
g5
sg9
g5
sg11
g5
sg12
g31
sg13
g5
sg14
g5
sg15
g5
sg16
g5
sg17
g5
sg18
I119292
sg19
g5
sg20
g5
sg21
g5
sg22
g31
sg23
g5
sg24
g5
sg25
g5
sg26
I119292
sg27
g5
sg28
g31
ssS'CAUSEY RICHARD A'
p418
(dp419
g3
I1892
sg4
g5
sg6
I30674
sg7
I01
sg8
I-235000
sg9
S'richard.causey@enron.com'
p420
sg11
I350000
sg12
F0.0306553911205074
sg13
g5
sg14
I1585
sg15
g5
sg16
I49
sg17
I307895
sg18
g5
sg19
I1000000
sg20
I2502063
sg21
I58
sg22
F0.837737843551797
sg23
I12
sg24
I2502063
sg25
I415189
sg26
I1868758
sg27
g5
sg28
F0.24489795918367346
ssS'TAYLOR MITCHELL S'
p421
(dp422
g3
I533
sg4
I227449
sg6
g5
sg7
I00
sg8
g5
sg9
S'mitchell.taylor@enron.com'
p423
sg11
g5
sg12
F0.0
sg13
g5
sg14
I300
sg15
g5
sg16
I29
sg17
g5
sg18
g5
sg19
I600000
sg20
I3745048
sg21
I0
sg22
F0.5628517823639775
sg23
I0
sg24
I563798
sg25
I265214
sg26
I1092663
sg27
I3181250
sg28
F0.0
ssS'DONAHUE JR JEFFREY M'
p424
(dp425
g3
I865
sg4
g5
sg6
I96268
sg7
I00
sg8
I-300000
sg9
S'jeff.donahue@enron.com'
p426
sg11
g5
sg12
F0.21734104046242775
sg13
g5
sg14
I772
sg15
g5
sg16
I22
sg17
I891
sg18
g5
sg19
I800000
sg20
I1080988
sg21
I188
sg22
F0.892485549132948
sg23
I11
sg24
I315068
sg25
I278601
sg26
I875760
sg27
I765920
sg28
F0.5
ssS'GLISAN JR BEN F'
p427
(dp428
g3
I873
sg4
g5
sg6
I125978
sg7
I01
sg8
g5
sg9
S'ben.glisan@enron.com'
p429
sg11
I71023
sg12
F0.05956471935853379
sg13
g5
sg14
I874
sg15
g5
sg16
I16
sg17
I200308
sg18
g5
sg19
I600000
sg20
I778546
sg21
I52
sg22
F1.0011454753722795
sg23
I6
sg24
I393818
sg25
I274975
sg26
I1272284
sg27
I384728
sg28
F0.375
ss.