(lp0
S'poi'
p1
aS'exercised_stock_options'
p2
aS'bonus'
p3
aS'salary'
p4
aS'from_this_person_to_poi_ratio'
p5
aS'deferred_income'
p6
aS'long_term_incentive'
p7
aS'restricted_stock'
p8
aS'shared_receipt_with_poi'
p9
aS'loan_advances'
p10
aS'expenses'
p11
aS'from_poi_to_this_person'
p12
aS'other'
p13
aS'from_poi_to_this_person_ratio'
p14
aS'from_this_person_to_poi'
p15
aS'director_fees'
p16
a.